; ModuleID = 'source-C-CXX/61/2694.c'
source_filename = "source-C-CXX/61/2694.c"
target datalayout = "e-m:e-p270:32:32-p271:32:32-p272:64:64-i64:64-f80:128-n8:16:32:64-S128"
target triple = "x86_64-pc-linux-gnu"

@.str.1 = private unnamed_addr constant [3 x i8] c"%d\00", align 1

; Function Attrs: nounwind sspstrong uwtable
define dso_local i32 @main() local_unnamed_addr #0 {
  %1 = alloca [100 x i8], align 16
  %2 = alloca i32, align 4
  %3 = getelementptr inbounds [100 x i8], [100 x i8]* %1, i64 0, i64 0
  call void @llvm.lifetime.start.p0i8(i64 100, i8* nonnull %3) #6
  %4 = call i32 (i8*, ...) bitcast (i32 (...)* @gets to i32 (i8*, ...)*)(i8* nonnull %3) #6
  %5 = call i64 @strlen(i8* noundef nonnull %3) #7
  %6 = trunc i64 %5 to i32
  %7 = icmp sgt i32 %6, 0
  br i1 %7, label %11, label %8

8:                                                ; preds = %33, %0
  %9 = bitcast i32* %2 to i8*
  call void @llvm.lifetime.start.p0i8(i64 4, i8* nonnull %9) #6
  store i32 0, i32* %2, align 4, !tbaa !5
  %10 = call i32 (i8*, ...) @__isoc99_scanf(i8* getelementptr inbounds ([3 x i8], [3 x i8]* @.str.1, i64 0, i64 0), i32* nonnull %2)
  call void @llvm.lifetime.end.p0i8(i64 4, i8* nonnull %9) #6
  call void @llvm.lifetime.end.p0i8(i64 100, i8* nonnull %3) #6
  ret i32 0

11:                                               ; preds = %0, %33
  %12 = phi i32 [ %37, %33 ], [ 0, %0 ]
  %13 = sext i32 %12 to i64
  %14 = getelementptr inbounds [100 x i8], [100 x i8]* %1, i64 0, i64 %13
  %15 = load i8, i8* %14, align 1, !tbaa !9
  %16 = icmp eq i8 %15, 32
  br i1 %16, label %17, label %31

17:                                               ; preds = %11
  %18 = add nsw i32 %12, 1
  %19 = sext i32 %18 to i64
  %20 = getelementptr inbounds [100 x i8], [100 x i8]* %1, i64 0, i64 %19
  %21 = load i8, i8* %20, align 1, !tbaa !9
  %22 = icmp eq i8 %21, 32
  br i1 %22, label %23, label %31

23:                                               ; preds = %17, %23
  %24 = phi i64 [ %25, %23 ], [ %19, %17 ]
  %25 = add i64 %24, 1
  %26 = getelementptr inbounds [100 x i8], [100 x i8]* %1, i64 0, i64 %25
  %27 = load i8, i8* %26, align 1, !tbaa !9
  %28 = icmp eq i8 %27, 32
  br i1 %28, label %23, label %29, !llvm.loop !10

29:                                               ; preds = %23
  %30 = trunc i64 %24 to i32
  br label %33

31:                                               ; preds = %17, %11
  %32 = sext i8 %15 to i32
  br label %33

33:                                               ; preds = %29, %31
  %34 = phi i32 [ 32, %29 ], [ %32, %31 ]
  %35 = phi i32 [ %30, %29 ], [ %12, %31 ]
  %36 = call i32 @putchar(i32 %34)
  %37 = add nsw i32 %35, 1
  %38 = icmp slt i32 %37, %6
  br i1 %38, label %11, label %8, !llvm.loop !12
}

; Function Attrs: argmemonly mustprogress nofree nosync nounwind willreturn
declare void @llvm.lifetime.start.p0i8(i64 immarg, i8* nocapture) #1

declare i32 @gets(...) local_unnamed_addr #2

; Function Attrs: argmemonly mustprogress nofree nounwind readonly willreturn
declare i64 @strlen(i8* nocapture) local_unnamed_addr #3

; Function Attrs: argmemonly mustprogress nofree nosync nounwind willreturn
declare void @llvm.lifetime.end.p0i8(i64 immarg, i8* nocapture) #1

; Function Attrs: nofree nounwind
declare noundef i32 @__isoc99_scanf(i8* nocapture noundef readonly, ...) local_unnamed_addr #4

; Function Attrs: nofree nounwind
declare noundef i32 @putchar(i32 noundef) local_unnamed_addr #5


!llvm.module.flags = !{!0, !1, !2, !3}
!llvm.ident = !{!4}

!0 = !{i32 1, !"wchar_size", i32 4}
!1 = !{i32 7, !"PIC Level", i32 2}
!2 = !{i32 7, !"PIE Level", i32 2}
!3 = !{i32 7, !"uwtable", i32 1}
!4 = !{!"clang version 13.0.0"}
!5 = !{!6, !6, i64 0}
!6 = !{!"int", !7, i64 0}
!7 = !{!"omnipotent char", !8, i64 0}
!8 = !{!"Simple C/C++ TBAA"}
!9 = !{!7, !7, i64 0}
!10 = distinct !{!10, !11}
!11 = !{!"llvm.loop.mustprogress"}
!12 = distinct !{!12, !11}
